target datalayout = "e-m:e-p270:32:32-p271:32:32-p272:64:64-i64:64-i128:128-f80:128-n8:16:32:64-S128"
target triple = "x86_64-pc-linux-gnu"

%class.MutexLocker = type { %class.MutexLockerImpl }
%class.MutexLockerImpl = type { ptr }
%class.anon = type { ptr }
%class.anon.94 = type { ptr }
%class.InvokeMethodKey = type { ptr, i64 }
%class.ResourceHashtableBase.8 = type <{ %class.FixedResourceHashtableStorage.9, i32, [4 x i8] }>
%class.FixedResourceHashtableStorage.9 = type { [139 x ptr] }
%class.ResourceHashtableNode = type { i32, %class.InvokeMethodKey, ptr, ptr }

@ClassLoaderDataGraph_lock = external global ptr, align 8
@InvokeMethodIntrinsicTable_lock = external global ptr, align 8
@_ZL30_invoke_method_intrinsic_table = internal global ptr null, align 8

; Function Attrs: mustprogress nounwind uwtable
define internal void @"_ZZN16SystemDictionary10methods_doEPFvP6MethodEENK3$_0clE15InvokeMethodKeyS1_"(ptr noundef nonnull align 8 dereferenceable(8) %0, ptr %1, i64 %2, ptr noundef %3) #1 align 2 {
  %5 = alloca %class.InvokeMethodKey, align 8
  %6 = alloca ptr, align 8
  %7 = alloca ptr, align 8
  %8 = getelementptr inbounds { ptr, i64 }, ptr %5, i32 0, i32 0
  store ptr %1, ptr %8, align 8
  %9 = getelementptr inbounds { ptr, i64 }, ptr %5, i32 0, i32 1
  store i64 %2, ptr %9, align 8
  store ptr %0, ptr %6, align 8
  store ptr %3, ptr %7, align 8
  %10 = load ptr, ptr %6, align 8
  %11 = load ptr, ptr %7, align 8
  %12 = icmp ne ptr %11, null
  br i1 %12, label %13, label %18

13:                                               ; preds = %4
  %14 = getelementptr inbounds %class.anon, ptr %10, i32 0, i32 0
  %15 = load ptr, ptr %14, align 8
  %16 = load ptr, ptr %15, align 8
  %17 = load ptr, ptr %7, align 8
  call void %16(ptr noundef %17)
  br label %18

18:                                               ; preds = %13, %4
  ret void
}

; Function Attrs: mustprogress nounwind uwtable
define linkonce_odr hidden noundef i32 @_ZNK29FixedResourceHashtableStorageILj139E15InvokeMethodKeyP6MethodE10table_sizeEv(ptr noundef nonnull align 8 dereferenceable(1112) %0) #1 comdat align 2 {
  %2 = alloca ptr, align 8
  store ptr %0, ptr %2, align 8
  ret i32 139
}

; Function Attrs: mustprogress nounwind uwtable
define linkonce_odr hidden noundef ptr @_ZNK29FixedResourceHashtableStorageILj139E15InvokeMethodKeyP6MethodE5tableEv(ptr noundef nonnull align 8 dereferenceable(1112) %0) #1 comdat align 2 {
  %2 = alloca ptr, align 8
  store ptr %0, ptr %2, align 8
  %3 = load ptr, ptr %2, align 8
  %4 = getelementptr inbounds %class.FixedResourceHashtableStorage.9, ptr %3, i32 0, i32 0
  %5 = getelementptr inbounds [139 x ptr], ptr %4, i64 0, i64 0
  ret ptr %5
}

; Function Attrs: mustprogress nounwind uwtable
define internal noundef zeroext i1 @"_ZZNK21ResourceHashtableBaseI29FixedResourceHashtableStorageILj139E15InvokeMethodKeyP6MethodES1_S3_LN6AnyObj15allocation_typeE2EL8MEMFLAGS1EXadL_ZNS1_12compute_hashERKS1_EEXadL_ZNS1_14key_comparisonES9_S9_EEE11iterate_allIZN16SystemDictionary10methods_doEPFvS3_EE3$_0EEvT_ENKUlRS1_RS3_E_clESH_SI_"(ptr noundef nonnull align 8 dereferenceable(8) %0, ptr noundef nonnull align 8 dereferenceable(16) %1, ptr noundef nonnull align 8 dereferenceable(8) %2) #1 align 2 {
  %4 = alloca ptr, align 8
  %5 = alloca ptr, align 8
  %6 = alloca ptr, align 8
  %7 = alloca %class.InvokeMethodKey, align 8
  store ptr %0, ptr %4, align 8
  store ptr %1, ptr %5, align 8
  store ptr %2, ptr %6, align 8
  %8 = load ptr, ptr %4, align 8
  %9 = getelementptr inbounds %class.anon.94, ptr %8, i32 0, i32 0
  %10 = load ptr, ptr %9, align 8
  %11 = load ptr, ptr %5, align 8
  call void @llvm.memcpy.p0.p0.i64(ptr align 8 %7, ptr align 8 %11, i64 16, i1 false)
  %12 = load ptr, ptr %6, align 8
  %13 = load ptr, ptr %12, align 8
  %14 = getelementptr inbounds { ptr, i64 }, ptr %7, i32 0, i32 0
  %15 = load ptr, ptr %14, align 8
  %16 = getelementptr inbounds { ptr, i64 }, ptr %7, i32 0, i32 1
  %17 = load i64, ptr %16, align 8
  call void @"_ZZN16SystemDictionary10methods_doEPFvP6MethodEENK3$_0clE15InvokeMethodKeyS1_"(ptr noundef nonnull align 8 dereferenceable(8) %10, ptr %15, i64 %17, ptr noundef %13)
  ret i1 true
}

; Function Attrs: mustprogress nounwind uwtable
define linkonce_odr hidden noundef ptr @_ZNK21ResourceHashtableBaseI29FixedResourceHashtableStorageILj139E15InvokeMethodKeyP6MethodES1_S3_LN6AnyObj15allocation_typeE2EL8MEMFLAGS1EXadL_ZNS1_12compute_hashERKS1_EEXadL_ZNS1_14key_comparisonES9_S9_EEE9bucket_atEj(ptr noundef nonnull align 8 dereferenceable(1116) %0, i32 noundef %1) #1 comdat align 2 {
  %3 = alloca ptr, align 8
  %4 = alloca i32, align 4
  %5 = alloca ptr, align 8
  store ptr %0, ptr %3, align 8
  store i32 %1, ptr %4, align 4
  %6 = load ptr, ptr %3, align 8
  %7 = call noundef ptr @_ZNK21ResourceHashtableBaseI29FixedResourceHashtableStorageILj139E15InvokeMethodKeyP6MethodES1_S3_LN6AnyObj15allocation_typeE2EL8MEMFLAGS1EXadL_ZNS1_12compute_hashERKS1_EEXadL_ZNS1_14key_comparisonES9_S9_EEE5tableEv(ptr noundef nonnull align 8 dereferenceable(1116) %6)
  store ptr %7, ptr %5, align 8
  %8 = load ptr, ptr %5, align 8
  %9 = load i32, ptr %4, align 4
  %10 = zext i32 %9 to i64
  %11 = getelementptr inbounds ptr, ptr %8, i64 %10
  ret ptr %11
}

; Function Attrs: mustprogress nounwind uwtable
define linkonce_odr hidden noundef i32 @_ZNK21ResourceHashtableBaseI29FixedResourceHashtableStorageILj139E15InvokeMethodKeyP6MethodES1_S3_LN6AnyObj15allocation_typeE2EL8MEMFLAGS1EXadL_ZNS1_12compute_hashERKS1_EEXadL_ZNS1_14key_comparisonES9_S9_EEE10table_sizeEv(ptr noundef nonnull align 8 dereferenceable(1116) %0) #1 comdat align 2 {
  %2 = alloca ptr, align 8
  store ptr %0, ptr %2, align 8
  %3 = load ptr, ptr %2, align 8
  %4 = call noundef i32 @_ZNK29FixedResourceHashtableStorageILj139E15InvokeMethodKeyP6MethodE10table_sizeEv(ptr noundef nonnull align 8 dereferenceable(1112) %3)
  ret i32 %4
}

; Function Attrs: mustprogress nounwind uwtable
define linkonce_odr hidden noundef ptr @_ZNK21ResourceHashtableBaseI29FixedResourceHashtableStorageILj139E15InvokeMethodKeyP6MethodES1_S3_LN6AnyObj15allocation_typeE2EL8MEMFLAGS1EXadL_ZNS1_12compute_hashERKS1_EEXadL_ZNS1_14key_comparisonES9_S9_EEE5tableEv(ptr noundef nonnull align 8 dereferenceable(1116) %0) #1 comdat align 2 {
  %2 = alloca ptr, align 8
  store ptr %0, ptr %2, align 8
  %3 = load ptr, ptr %2, align 8
  %4 = call noundef ptr @_ZNK29FixedResourceHashtableStorageILj139E15InvokeMethodKeyP6MethodE5tableEv(ptr noundef nonnull align 8 dereferenceable(1112) %3)
  ret ptr %4
}

; Function Attrs: mustprogress nounwind uwtable
define internal void @"_ZNK21ResourceHashtableBaseI29FixedResourceHashtableStorageILj139E15InvokeMethodKeyP6MethodES1_S3_LN6AnyObj15allocation_typeE2EL8MEMFLAGS1EXadL_ZNS1_12compute_hashERKS1_EEXadL_ZNS1_14key_comparisonES9_S9_EEE7iterateIZNKSA_11iterate_allIZN16SystemDictionary10methods_doEPFvS3_EE3$_0EEvT_EUlRS1_RS3_E_EEvSH_"(ptr noundef nonnull align 8 dereferenceable(1116) %0, ptr %1) #1 align 2 {
  %3 = alloca %class.anon.94, align 8
  %4 = alloca ptr, align 8
  %5 = alloca ptr, align 8
  %6 = alloca i32, align 4
  %7 = alloca i32, align 4
  %8 = alloca ptr, align 8
  %9 = alloca i8, align 1
  %10 = getelementptr inbounds %class.anon.94, ptr %3, i32 0, i32 0
  store ptr %1, ptr %10, align 8
  store ptr %0, ptr %4, align 8
  %11 = load ptr, ptr %4, align 8
  %12 = call noundef ptr @_ZNK21ResourceHashtableBaseI29FixedResourceHashtableStorageILj139E15InvokeMethodKeyP6MethodES1_S3_LN6AnyObj15allocation_typeE2EL8MEMFLAGS1EXadL_ZNS1_12compute_hashERKS1_EEXadL_ZNS1_14key_comparisonES9_S9_EEE5tableEv(ptr noundef nonnull align 8 dereferenceable(1116) %11)
  store ptr %12, ptr %5, align 8
  %13 = call noundef i32 @_ZNK21ResourceHashtableBaseI29FixedResourceHashtableStorageILj139E15InvokeMethodKeyP6MethodES1_S3_LN6AnyObj15allocation_typeE2EL8MEMFLAGS1EXadL_ZNS1_12compute_hashERKS1_EEXadL_ZNS1_14key_comparisonES9_S9_EEE10table_sizeEv(ptr noundef nonnull align 8 dereferenceable(1116) %11)
  store i32 %13, ptr %6, align 4
  %14 = getelementptr inbounds %class.ResourceHashtableBase.8, ptr %11, i32 0, i32 1
  %15 = load i32, ptr %14, align 8
  store i32 %15, ptr %7, align 4
  br label %16

16:                                               ; preds = %48, %2
  %17 = load i32, ptr %7, align 4
  %18 = icmp sgt i32 %17, 0
  br i1 %18, label %19, label %24

19:                                               ; preds = %16
  %20 = load ptr, ptr %5, align 8
  %21 = load i32, ptr %6, align 4
  %22 = call noundef ptr @_ZNK21ResourceHashtableBaseI29FixedResourceHashtableStorageILj139E15InvokeMethodKeyP6MethodES1_S3_LN6AnyObj15allocation_typeE2EL8MEMFLAGS1EXadL_ZNS1_12compute_hashERKS1_EEXadL_ZNS1_14key_comparisonES9_S9_EEE9bucket_atEj(ptr noundef nonnull align 8 dereferenceable(1116) %11, i32 noundef %21)
  %23 = icmp ult ptr %20, %22
  br label %24

24:                                               ; preds = %19, %16
  %25 = phi i1 [ false, %16 ], [ %23, %19 ]
  br i1 %25, label %26, label %51

26:                                               ; preds = %24
  %27 = load ptr, ptr %5, align 8
  %28 = load ptr, ptr %27, align 8
  store ptr %28, ptr %8, align 8
  br label %29

29:                                               ; preds = %42, %26
  %30 = load ptr, ptr %8, align 8
  %31 = icmp ne ptr %30, null
  br i1 %31, label %32, label %48

32:                                               ; preds = %29
  %33 = load ptr, ptr %8, align 8
  %34 = getelementptr inbounds %class.ResourceHashtableNode, ptr %33, i32 0, i32 1
  %35 = load ptr, ptr %8, align 8
  %36 = getelementptr inbounds %class.ResourceHashtableNode, ptr %35, i32 0, i32 2
  %37 = call noundef zeroext i1 @"_ZZNK21ResourceHashtableBaseI29FixedResourceHashtableStorageILj139E15InvokeMethodKeyP6MethodES1_S3_LN6AnyObj15allocation_typeE2EL8MEMFLAGS1EXadL_ZNS1_12compute_hashERKS1_EEXadL_ZNS1_14key_comparisonES9_S9_EEE11iterate_allIZN16SystemDictionary10methods_doEPFvS3_EE3$_0EEvT_ENKUlRS1_RS3_E_clESH_SI_"(ptr noundef nonnull align 8 dereferenceable(8) %3, ptr noundef nonnull align 8 dereferenceable(16) %34, ptr noundef nonnull align 8 dereferenceable(8) %36)
  %38 = zext i1 %37 to i8
  store i8 %38, ptr %9, align 1
  %39 = load i8, ptr %9, align 1
  %40 = trunc i8 %39 to i1
  br i1 %40, label %42, label %41

41:                                               ; preds = %32
  br label %51

42:                                               ; preds = %32
  %43 = load ptr, ptr %8, align 8
  %44 = getelementptr inbounds %class.ResourceHashtableNode, ptr %43, i32 0, i32 3
  %45 = load ptr, ptr %44, align 8
  store ptr %45, ptr %8, align 8
  %46 = load i32, ptr %7, align 4
  %47 = add nsw i32 %46, -1
  store i32 %47, ptr %7, align 4
  br label %29, !llvm.loop !33

48:                                               ; preds = %29
  %49 = load ptr, ptr %5, align 8
  %50 = getelementptr inbounds ptr, ptr %49, i32 1
  store ptr %50, ptr %5, align 8
  br label %16, !llvm.loop !34

51:                                               ; preds = %41, %24
  ret void
}

; Function Attrs: mustprogress nounwind uwtable
define linkonce_odr hidden void @_ZN15MutexLockerImplD2Ev(ptr noundef nonnull align 8 dereferenceable(8) %0) unnamed_addr #1 comdat align 2 {
  %2 = alloca ptr, align 8
  store ptr %0, ptr %2, align 8
  %3 = load ptr, ptr %2, align 8
  %4 = getelementptr inbounds %class.MutexLockerImpl, ptr %3, i32 0, i32 0
  %5 = load ptr, ptr %4, align 8
  %6 = icmp ne ptr %5, null
  br i1 %6, label %7, label %10

7:                                                ; preds = %1
  %8 = getelementptr inbounds %class.MutexLockerImpl, ptr %3, i32 0, i32 0
  %9 = load ptr, ptr %8, align 8
  call void @_ZN5Mutex6unlockEv(ptr noundef nonnull align 8 dereferenceable(104) %9)
  br label %10

10:                                               ; preds = %7, %1
  ret void
}

; Function Attrs: mustprogress nounwind uwtable
define linkonce_odr hidden void @_ZN15MutexLockerImplC2EP5MutexNS0_18SafepointCheckFlagE(ptr noundef nonnull align 8 dereferenceable(8) %0, ptr noundef %1, i32 noundef %2) unnamed_addr #1 comdat align 2 {
  %4 = alloca ptr, align 8
  %5 = alloca ptr, align 8
  %6 = alloca i32, align 4
  %7 = alloca i8, align 1
  store ptr %0, ptr %4, align 8
  store ptr %1, ptr %5, align 8
  store i32 %2, ptr %6, align 4
  %8 = load ptr, ptr %4, align 8
  %9 = getelementptr inbounds %class.MutexLockerImpl, ptr %8, i32 0, i32 0
  %10 = load ptr, ptr %5, align 8
  store ptr %10, ptr %9, align 8
  %11 = load i32, ptr %6, align 4
  %12 = icmp eq i32 %11, 1
  %13 = zext i1 %12 to i8
  store i8 %13, ptr %7, align 1
  %14 = getelementptr inbounds %class.MutexLockerImpl, ptr %8, i32 0, i32 0
  %15 = load ptr, ptr %14, align 8
  %16 = icmp ne ptr %15, null
  br i1 %16, label %17, label %27

17:                                               ; preds = %3
  %18 = load i8, ptr %7, align 1
  %19 = trunc i8 %18 to i1
  br i1 %19, label %20, label %23

20:                                               ; preds = %17
  %21 = getelementptr inbounds %class.MutexLockerImpl, ptr %8, i32 0, i32 0
  %22 = load ptr, ptr %21, align 8
  call void @_ZN5Mutex28lock_without_safepoint_checkEv(ptr noundef nonnull align 8 dereferenceable(104) %22)
  br label %26

23:                                               ; preds = %17
  %24 = getelementptr inbounds %class.MutexLockerImpl, ptr %8, i32 0, i32 0
  %25 = load ptr, ptr %24, align 8
  call void @_ZN5Mutex4lockEv(ptr noundef nonnull align 8 dereferenceable(104) %25)
  br label %26

26:                                               ; preds = %23, %20
  br label %27

27:                                               ; preds = %26, %3
  ret void
}

; Function Attrs: mustprogress nounwind uwtable
define internal void @"_ZNK21ResourceHashtableBaseI29FixedResourceHashtableStorageILj139E15InvokeMethodKeyP6MethodES1_S3_LN6AnyObj15allocation_typeE2EL8MEMFLAGS1EXadL_ZNS1_12compute_hashERKS1_EEXadL_ZNS1_14key_comparisonES9_S9_EEE11iterate_allIZN16SystemDictionary10methods_doEPFvS3_EE3$_0EEvT_"(ptr noundef nonnull align 8 dereferenceable(1116) %0, ptr %1) #1 align 2 {
  %3 = alloca %class.anon, align 8
  %4 = alloca ptr, align 8
  %5 = alloca %class.anon.94, align 8
  %6 = alloca %class.anon.94, align 8
  %7 = getelementptr inbounds %class.anon, ptr %3, i32 0, i32 0
  store ptr %1, ptr %7, align 8
  store ptr %0, ptr %4, align 8
  %8 = load ptr, ptr %4, align 8
  %9 = getelementptr inbounds %class.anon.94, ptr %5, i32 0, i32 0
  store ptr %3, ptr %9, align 8
  call void @llvm.memcpy.p0.p0.i64(ptr align 8 %6, ptr align 8 %5, i64 8, i1 false)
  %10 = getelementptr inbounds %class.anon.94, ptr %6, i32 0, i32 0
  %11 = load ptr, ptr %10, align 8
  call void @"_ZNK21ResourceHashtableBaseI29FixedResourceHashtableStorageILj139E15InvokeMethodKeyP6MethodES1_S3_LN6AnyObj15allocation_typeE2EL8MEMFLAGS1EXadL_ZNS1_12compute_hashERKS1_EEXadL_ZNS1_14key_comparisonES9_S9_EEE7iterateIZNKSA_11iterate_allIZN16SystemDictionary10methods_doEPFvS3_EE3$_0EEvT_EUlRS1_RS3_E_EEvSH_"(ptr noundef nonnull align 8 dereferenceable(1116) %8, ptr %11)
  ret void
}

; Function Attrs: mustprogress nounwind uwtable
define linkonce_odr hidden void @_ZN11MutexLockerD2Ev(ptr noundef nonnull align 8 dereferenceable(8) %0) unnamed_addr #1 comdat align 2 {
  %2 = alloca ptr, align 8
  store ptr %0, ptr %2, align 8
  %3 = load ptr, ptr %2, align 8
  call void @_ZN15MutexLockerImplD2Ev(ptr noundef nonnull align 8 dereferenceable(8) %3) #9
  ret void
}

; Function Attrs: mustprogress nounwind uwtable
define linkonce_odr hidden void @_ZN11MutexLockerC2EP5MutexNS0_18SafepointCheckFlagE(ptr noundef nonnull align 8 dereferenceable(8) %0, ptr noundef %1, i32 noundef %2) unnamed_addr #1 comdat align 2 {
  %4 = alloca ptr, align 8
  %5 = alloca ptr, align 8
  %6 = alloca i32, align 4
  store ptr %0, ptr %4, align 8
  store ptr %1, ptr %5, align 8
  store i32 %2, ptr %6, align 4
  %7 = load ptr, ptr %4, align 8
  %8 = load ptr, ptr %5, align 8
  %9 = load i32, ptr %6, align 4
  call void @_ZN15MutexLockerImplC2EP5MutexNS0_18SafepointCheckFlagE(ptr noundef nonnull align 8 dereferenceable(8) %7, ptr noundef %8, i32 noundef %9)
  ret void
}

; Function Attrs: mustprogress nounwind uwtable
define hidden void @_ZN16SystemDictionary10methods_doEPFvP6MethodE(ptr noundef %0) #1 align 2 {
  %2 = alloca ptr, align 8
  %3 = alloca %class.MutexLocker, align 8
  %4 = alloca %class.anon, align 8
  %5 = alloca %class.MutexLocker, align 8
  %6 = alloca %class.anon, align 8
  store ptr %0, ptr %2, align 8
  %7 = load ptr, ptr @ClassLoaderDataGraph_lock, align 8
  call void @_ZN11MutexLockerC2EP5MutexNS0_18SafepointCheckFlagE(ptr noundef nonnull align 8 dereferenceable(8) %3, ptr noundef %7, i32 noundef 0)
  %8 = load ptr, ptr %2, align 8
  call void @_ZN20ClassLoaderDataGraph10methods_doEPFvP6MethodE(ptr noundef %8)
  call void @_ZN11MutexLockerD2Ev(ptr noundef nonnull align 8 dereferenceable(8) %3) #9
  %9 = getelementptr inbounds %class.anon, ptr %4, i32 0, i32 0
  store ptr %2, ptr %9, align 8
  %10 = load ptr, ptr @InvokeMethodIntrinsicTable_lock, align 8
  call void @_ZN11MutexLockerC2EP5MutexNS0_18SafepointCheckFlagE(ptr noundef nonnull align 8 dereferenceable(8) %5, ptr noundef %10, i32 noundef 0)
  %11 = load ptr, ptr @_ZL30_invoke_method_intrinsic_table, align 8
  call void @llvm.memcpy.p0.p0.i64(ptr align 8 %6, ptr align 8 %4, i64 8, i1 false)
  %12 = getelementptr inbounds %class.anon, ptr %6, i32 0, i32 0
  %13 = load ptr, ptr %12, align 8
  call void @"_ZNK21ResourceHashtableBaseI29FixedResourceHashtableStorageILj139E15InvokeMethodKeyP6MethodES1_S3_LN6AnyObj15allocation_typeE2EL8MEMFLAGS1EXadL_ZNS1_12compute_hashERKS1_EEXadL_ZNS1_14key_comparisonES9_S9_EEE11iterate_allIZN16SystemDictionary10methods_doEPFvS3_EE3$_0EEvT_"(ptr noundef nonnull align 8 dereferenceable(1116) %11, ptr %13)
  call void @_ZN11MutexLockerD2Ev(ptr noundef nonnull align 8 dereferenceable(8) %5) #9
  ret void
}