; Function Attrs: mustprogress nounwind uwtable
define hidden void @_ZN16SystemDictionary10methods_doEPFvP6MethodE(ptr noundef %0) local_unnamed_addr #0 align 2 {
  %2 = load ptr, ptr @ClassLoaderDataGraph_lock, align 8
  %.not.i.i = icmp eq ptr %2, null
  br i1 %.not.i.i, label %_ZN11MutexLockerC2EP5MutexNS0_18SafepointCheckFlagE.exit.thread, label %3

_ZN11MutexLockerC2EP5MutexNS0_18SafepointCheckFlagE.exit.thread: ; preds = %1
  tail call void @_ZN20ClassLoaderDataGraph10methods_doEPFvP6MethodE(ptr noundef %0) #14
  br label %_ZN11MutexLockerD2Ev.exit

3:                                                ; preds = %1
  tail call void @_ZN5Mutex4lockEv(ptr noundef nonnull align 8 dereferenceable(104) %2) #14
  tail call void @_ZN20ClassLoaderDataGraph10methods_doEPFvP6MethodE(ptr noundef %0) #14
  tail call void @_ZN5Mutex6unlockEv(ptr noundef nonnull align 8 dereferenceable(104) %2) #14
  br label %_ZN11MutexLockerD2Ev.exit

_ZN11MutexLockerD2Ev.exit:                        ; preds = %_ZN11MutexLockerC2EP5MutexNS0_18SafepointCheckFlagE.exit.thread, %3
  %4 = load ptr, ptr @InvokeMethodIntrinsicTable_lock, align 8
  %.not.i.i3 = icmp eq ptr %4, null
  br i1 %.not.i.i3, label %_ZN11MutexLockerC2EP5MutexNS0_18SafepointCheckFlagE.exit4, label %5

5:                                                ; preds = %_ZN11MutexLockerD2Ev.exit
  tail call void @_ZN5Mutex4lockEv(ptr noundef nonnull align 8 dereferenceable(104) %4) #14
  br label %_ZN11MutexLockerC2EP5MutexNS0_18SafepointCheckFlagE.exit4

_ZN11MutexLockerC2EP5MutexNS0_18SafepointCheckFlagE.exit4: ; preds = %_ZN11MutexLockerD2Ev.exit, %5
  %6 = load ptr, ptr @_ZL30_invoke_method_intrinsic_table, align 8
  %7 = getelementptr inbounds i8, ptr %6, i64 1112
  %8 = load i32, ptr %7, align 8
  %9 = icmp sgt i32 %8, 0
  br i1 %9, label %.preheader.i.i, label %"_ZNK21ResourceHashtableBaseI29FixedResourceHashtableStorageILj139E15InvokeMethodKeyP6MethodES1_S3_LN6AnyObj15allocation_typeE2EL8MEMFLAGS1EXadL_ZNS1_12compute_hashERKS1_EEXadL_ZNS1_14key_comparisonES9_S9_EEE11iterate_allIZN16SystemDictionary10methods_doEPFvS3_EE3$_0EEvT_.exit"

.preheader.i.i:                                   ; preds = %_ZN11MutexLockerC2EP5MutexNS0_18SafepointCheckFlagE.exit4, %._crit_edge.i.i
  %.0.idx20.i.i = phi i64 [ %.0.add.i.i, %._crit_edge.i.i ], [ 0, %_ZN11MutexLockerC2EP5MutexNS0_18SafepointCheckFlagE.exit4 ]
  %.01219.i.i = phi i32 [ %.1.lcssa.i.i, %._crit_edge.i.i ], [ %8, %_ZN11MutexLockerC2EP5MutexNS0_18SafepointCheckFlagE.exit4 ]
  %.0.ptr21.i.i = getelementptr inbounds i8, ptr %6, i64 %.0.idx20.i.i
  %.01115.i.i = load ptr, ptr %.0.ptr21.i.i, align 8
  %.not16.i.i = icmp eq ptr %.01115.i.i, null
  br i1 %.not16.i.i, label %._crit_edge.i.i, label %.lr.ph.i.i

.lr.ph.i.i:                                       ; preds = %.preheader.i.i, %"_ZZNK21ResourceHashtableBaseI29FixedResourceHashtableStorageILj139E15InvokeMethodKeyP6MethodES1_S3_LN6AnyObj15allocation_typeE2EL8MEMFLAGS1EXadL_ZNS1_12compute_hashERKS1_EEXadL_ZNS1_14key_comparisonES9_S9_EEE11iterate_allIZN16SystemDictionary10methods_doEPFvS3_EE3$_0EEvT_ENKUlRS1_RS3_E_clESH_SI_.exit.i.i"
  %.01118.i.i = phi ptr [ %.011.i.i, %"_ZZNK21ResourceHashtableBaseI29FixedResourceHashtableStorageILj139E15InvokeMethodKeyP6MethodES1_S3_LN6AnyObj15allocation_typeE2EL8MEMFLAGS1EXadL_ZNS1_12compute_hashERKS1_EEXadL_ZNS1_14key_comparisonES9_S9_EEE11iterate_allIZN16SystemDictionary10methods_doEPFvS3_EE3$_0EEvT_ENKUlRS1_RS3_E_clESH_SI_.exit.i.i" ], [ %.01115.i.i, %.preheader.i.i ]
  %.117.i.i = phi i32 [ %13, %"_ZZNK21ResourceHashtableBaseI29FixedResourceHashtableStorageILj139E15InvokeMethodKeyP6MethodES1_S3_LN6AnyObj15allocation_typeE2EL8MEMFLAGS1EXadL_ZNS1_12compute_hashERKS1_EEXadL_ZNS1_14key_comparisonES9_S9_EEE11iterate_allIZN16SystemDictionary10methods_doEPFvS3_EE3$_0EEvT_ENKUlRS1_RS3_E_clESH_SI_.exit.i.i" ], [ %.01219.i.i, %.preheader.i.i ]
  %10 = getelementptr inbounds i8, ptr %.01118.i.i, i64 24
  %.val14.i.i = load ptr, ptr %10, align 8
  %.not.i.i.i.i = icmp eq ptr %.val14.i.i, null
  br i1 %.not.i.i.i.i, label %"_ZZNK21ResourceHashtableBaseI29FixedResourceHashtableStorageILj139E15InvokeMethodKeyP6MethodES1_S3_LN6AnyObj15allocation_typeE2EL8MEMFLAGS1EXadL_ZNS1_12compute_hashERKS1_EEXadL_ZNS1_14key_comparisonES9_S9_EEE11iterate_allIZN16SystemDictionary10methods_doEPFvS3_EE3$_0EEvT_ENKUlRS1_RS3_E_clESH_SI_.exit.i.i", label %11

11:                                               ; preds = %.lr.ph.i.i
  tail call void %0(ptr noundef nonnull %.val14.i.i) #14
  br label %"_ZZNK21ResourceHashtableBaseI29FixedResourceHashtableStorageILj139E15InvokeMethodKeyP6MethodES1_S3_LN6AnyObj15allocation_typeE2EL8MEMFLAGS1EXadL_ZNS1_12compute_hashERKS1_EEXadL_ZNS1_14key_comparisonES9_S9_EEE11iterate_allIZN16SystemDictionary10methods_doEPFvS3_EE3$_0EEvT_ENKUlRS1_RS3_E_clESH_SI_.exit.i.i"

"_ZZNK21ResourceHashtableBaseI29FixedResourceHashtableStorageILj139E15InvokeMethodKeyP6MethodES1_S3_LN6AnyObj15allocation_typeE2EL8MEMFLAGS1EXadL_ZNS1_12compute_hashERKS1_EEXadL_ZNS1_14key_comparisonES9_S9_EEE11iterate_allIZN16SystemDictionary10methods_doEPFvS3_EE3$_0EEvT_ENKUlRS1_RS3_E_clESH_SI_.exit.i.i": ; preds = %11, %.lr.ph.i.i
  %12 = getelementptr inbounds i8, ptr %.01118.i.i, i64 32
  %13 = add nsw i32 %.117.i.i, -1
  %.011.i.i = load ptr, ptr %12, align 8
  %.not.i.i5 = icmp eq ptr %.011.i.i, null
  br i1 %.not.i.i5, label %._crit_edge.i.i, label %.lr.ph.i.i, !llvm.loop !16

._crit_edge.i.i:                                  ; preds = %"_ZZNK21ResourceHashtableBaseI29FixedResourceHashtableStorageILj139E15InvokeMethodKeyP6MethodES1_S3_LN6AnyObj15allocation_typeE2EL8MEMFLAGS1EXadL_ZNS1_12compute_hashERKS1_EEXadL_ZNS1_14key_comparisonES9_S9_EEE11iterate_allIZN16SystemDictionary10methods_doEPFvS3_EE3$_0EEvT_ENKUlRS1_RS3_E_clESH_SI_.exit.i.i", %.preheader.i.i
  %.1.lcssa.i.i = phi i32 [ %.01219.i.i, %.preheader.i.i ], [ %13, %"_ZZNK21ResourceHashtableBaseI29FixedResourceHashtableStorageILj139E15InvokeMethodKeyP6MethodES1_S3_LN6AnyObj15allocation_typeE2EL8MEMFLAGS1EXadL_ZNS1_12compute_hashERKS1_EEXadL_ZNS1_14key_comparisonES9_S9_EEE11iterate_allIZN16SystemDictionary10methods_doEPFvS3_EE3$_0EEvT_ENKUlRS1_RS3_E_clESH_SI_.exit.i.i" ]
  %.0.add.i.i = add nuw nsw i64 %.0.idx20.i.i, 8
  %14 = icmp sgt i32 %.1.lcssa.i.i, 0
  %15 = icmp ult i64 %.0.idx20.i.i, 1104
  %or.cond.i.i = and i1 %15, %14
  br i1 %or.cond.i.i, label %.preheader.i.i, label %"_ZNK21ResourceHashtableBaseI29FixedResourceHashtableStorageILj139E15InvokeMethodKeyP6MethodES1_S3_LN6AnyObj15allocation_typeE2EL8MEMFLAGS1EXadL_ZNS1_12compute_hashERKS1_EEXadL_ZNS1_14key_comparisonES9_S9_EEE11iterate_allIZN16SystemDictionary10methods_doEPFvS3_EE3$_0EEvT_.exit", !llvm.loop !17

"_ZNK21ResourceHashtableBaseI29FixedResourceHashtableStorageILj139E15InvokeMethodKeyP6MethodES1_S3_LN6AnyObj15allocation_typeE2EL8MEMFLAGS1EXadL_ZNS1_12compute_hashERKS1_EEXadL_ZNS1_14key_comparisonES9_S9_EEE11iterate_allIZN16SystemDictionary10methods_doEPFvS3_EE3$_0EEvT_.exit": ; preds = %._crit_edge.i.i, %_ZN11MutexLockerC2EP5MutexNS0_18SafepointCheckFlagE.exit4
  br i1 %.not.i.i3, label %_ZN11MutexLockerD2Ev.exit7, label %16

16:                                               ; preds = %"_ZNK21ResourceHashtableBaseI29FixedResourceHashtableStorageILj139E15InvokeMethodKeyP6MethodES1_S3_LN6AnyObj15allocation_typeE2EL8MEMFLAGS1EXadL_ZNS1_12compute_hashERKS1_EEXadL_ZNS1_14key_comparisonES9_S9_EEE11iterate_allIZN16SystemDictionary10methods_doEPFvS3_EE3$_0EEvT_.exit"
  tail call void @_ZN5Mutex6unlockEv(ptr noundef nonnull align 8 dereferenceable(104) %4) #14
  br label %_ZN11MutexLockerD2Ev.exit7

_ZN11MutexLockerD2Ev.exit7:                       ; preds = %"_ZNK21ResourceHashtableBaseI29FixedResourceHashtableStorageILj139E15InvokeMethodKeyP6MethodES1_S3_LN6AnyObj15allocation_typeE2EL8MEMFLAGS1EXadL_ZNS1_12compute_hashERKS1_EEXadL_ZNS1_14key_comparisonES9_S9_EEE11iterate_allIZN16SystemDictionary10methods_doEPFvS3_EE3$_0EEvT_.exit", %16
  ret void
}